(dp1
S'OriginalConfig'
p2
ccopy_reg
_reconstructor
p3
(cWMCore.Configuration
Configuration
p4
c__builtin__
object
p5
NtRp6
(dp7
S'Site'
p8
g3
(cWMCore.Configuration
ConfigSection
p9
g5
NtRp10
(dp11
S'_internal_skipChecks'
p12
I00
sS'_internal_documentation'
p13
S''
sS'_internal_settings'
p14
c__builtin__
set
p15
((lp16
S'storageSite'
p17
atRp18
sS'_internal_name'
p19
g8
sS'_internal_docstrings'
p20
(dp21
sS'_internal_children'
p22
g15
((ltRp23
sg17
S'T2_IT_Legnaro'
p24
sS'_internal_parent_ref'
p25
NsbsS'_internal_sections'
p26
(lp27
S'General'
p28
aS'JobType'
p29
aS'Data'
p30
ag8
asg28
g3
(g9
g5
NtRp31
(dp32
S'transferLogs'
p33
I01
sg12
I00
sg13
S''
sg14
g15
((lp34
g33
aS'transferOutputs'
p35
aS'workArea'
p36
aS'requestName'
p37
atRp38
sg19
g28
sg20
(dp39
sg35
I01
sg22
g15
((ltRp40
sg37
S'MC13TeV_QCDMuEnriched600to800'
p41
sg25
Nsg36
S'grid'
p42
sbsS'_internal_webapps'
p43
(lp44
sS'_internal_components'
p45
(lp46
sg30
g3
(g9
g5
NtRp47
(dp48
S'inputDataset'
p49
S'/QCD_Pt-600to800_MuEnrichedPt5_TuneCUETP8M1_13TeV_pythia8/RunIISummer17MiniAOD-92X_upgrade2017_realistic_v10-v2/MINIAODSIM'
p50
sg12
I00
sS'splitting'
p51
S'FileBased'
p52
sS'unitsPerJob'
p53
I4
sg13
S''
sg14
g15
((lp54
g49
aS'publication'
p55
ag53
aS'ignoreLocality'
p56
aS'inputDBS'
p57
ag51
aS'outLFNDirBase'
p58
atRp59
sg56
I00
sg19
g30
sg57
S'global'
p60
sg20
(dp61
sg22
g15
((ltRp62
sg58
S'/store/group/cmst3/group/top/psilva/997546d/'
p63
sg25
Nsg55
I00
sbsg29
g3
(g9
g5
NtRp64
(dp65
g12
I00
sS'pyCfgParams'
p66
(lp67
S'runOnData=False'
p68
aS'era=era2017'
p69
asg13
S''
sg14
g15
((lp70
S'psetName'
p71
aS'pluginName'
p72
aS'inputFiles'
p73
ag66
aS'disableAutomaticOutputCollection'
p74
atRp75
sg19
g29
sg20
(dp76
sg72
S'Analysis'
p77
sg22
g15
((ltRp78
sg71
S'/afs/cern.ch/work/q/qhassan/top2017/CMSSW_9_4_0/src/TopLJets2015/TopAnalysis/test/runMiniAnalyzer_cfg.py'
p79
sg25
Nsg73
(lp80
S'jec_MC.db'
p81
asg74
I00
sbsbsS'voGroup'
p82
S''
sS'Server'
p83
S'cmsweb.cern.ch'
p84
sS'instance'
p85
S'prod'
p86
sS'RequestName'
p87
V180227_112649:qhassan_crab_MC13TeV_QCDMuEnriched600to800
p88
sS'voRole'
p89
S'NULL'
p90
sS'Port'
p91
S''
s.