(dp1
S'OriginalConfig'
p2
ccopy_reg
_reconstructor
p3
(cWMCore.Configuration
Configuration
p4
c__builtin__
object
p5
NtRp6
(dp7
S'Site'
p8
g3
(cWMCore.Configuration
ConfigSection
p9
g5
NtRp10
(dp11
S'_internal_skipChecks'
p12
I00
sS'_internal_documentation'
p13
S''
sS'_internal_settings'
p14
c__builtin__
set
p15
((lp16
S'storageSite'
p17
atRp18
sS'_internal_name'
p19
g8
sS'_internal_docstrings'
p20
(dp21
sS'_internal_children'
p22
g15
((ltRp23
sg17
S'T2_IT_Legnaro'
p24
sS'_internal_parent_ref'
p25
NsbsS'_internal_sections'
p26
(lp27
S'General'
p28
aS'JobType'
p29
aS'Data'
p30
ag8
asg28
g3
(g9
g5
NtRp31
(dp32
S'transferLogs'
p33
I01
sg12
I00
sg13
S''
sg14
g15
((lp34
g33
aS'transferOutputs'
p35
aS'workArea'
p36
aS'requestName'
p37
atRp38
sg19
g28
sg20
(dp39
sg35
I01
sg22
g15
((ltRp40
sg37
S'Data13TeV_SingleMuon_2017DPromptv1'
p41
sg25
Nsg36
S'grid'
p42
sbsS'_internal_webapps'
p43
(lp44
sS'_internal_components'
p45
(lp46
sg30
g3
(g9
g5
NtRp47
(dp48
S'inputDataset'
p49
S'/SingleMuon/Run2017D-PromptReco-v1/MINIAOD'
p50
sg12
I00
sS'splitting'
p51
S'LumiBased'
p52
sS'unitsPerJob'
p53
I100
sg13
S''
sg14
g15
((lp54
g49
aS'publication'
p55
ag53
aS'ignoreLocality'
p56
ag51
aS'inputDBS'
p57
aS'lumiMask'
p58
aS'outLFNDirBase'
p59
atRp60
sg56
I00
sg19
g30
sg57
S'global'
p61
sg20
(dp62
sg22
g15
((ltRp63
sg59
S'/store/group/cmst3/group/top/psilva/997546d/'
p64
sg25
Nsg58
S'/afs/cern.ch/cms/CAF/CMSCOMM/COMM_DQM/certification/Collisions17/13TeV/Final/Cert_294927-306462_13TeV_PromptReco_Collisions17_JSON.txt'
p65
sg55
I00
sbsg29
g3
(g9
g5
NtRp66
(dp67
g12
I00
sS'pyCfgParams'
p68
(lp69
S'runOnData=True'
p70
aS'era=era2017'
p71
asg13
S''
sg14
g15
((lp72
S'psetName'
p73
aS'pluginName'
p74
aS'inputFiles'
p75
ag68
aS'disableAutomaticOutputCollection'
p76
atRp77
sg19
g29
sg20
(dp78
sg74
S'Analysis'
p79
sg22
g15
((ltRp80
sg73
S'/afs/cern.ch/work/q/qhassan/top2017/CMSSW_9_4_0/src/TopLJets2015/TopAnalysis/test/runMiniAnalyzer_cfg.py'
p81
sg25
Nsg75
(lp82
S'jec_DATA.db'
p83
asg76
I00
sbsbsS'voGroup'
p84
S''
sS'Server'
p85
S'cmsweb.cern.ch'
p86
sS'instance'
p87
S'prod'
p88
sS'RequestName'
p89
V180228_020803:qhassan_crab_Data13TeV_SingleMuon_2017DPromptv1
p90
sS'voRole'
p91
S'NULL'
p92
sS'Port'
p93
S''
s.